; Function Attrs: mustprogress uwtable
define void @_ZN2cv4UMat3eyeENS_5Size_IiEEiNS_14UMatUsageFlagsE(ptr dead_on_unwind noalias nonnull writable sret(%"class.cv::UMat") align 8 %0, i64 %1, i32 noundef %2, i32 noundef %3) local_unnamed_addr #1 align 2 personality ptr @__gxx_personality_v0 {
  %5 = alloca %"class.cv::_InputOutputArray", align 8
  %6 = alloca %"class.cv::Scalar_", align 8
  tail call void @_ZN2cv4UMatC1ENS_5Size_IiEEiNS_14UMatUsageFlagsE(ptr noundef nonnull align 8 dereferenceable(80) %0, i64 %1, i32 noundef %2, i32 noundef %3)
  call void @llvm.lifetime.start.p0(i64 24, ptr nonnull %5) #17
  %7 = getelementptr inbounds nuw i8, ptr %5, i64 8
  %8 = getelementptr inbounds nuw i8, ptr %5, i64 16
  store i64 0, ptr %8, align 8
  store i32 50987008, ptr %5, align 8, !tbaa !46
  store ptr %0, ptr %7, align 8, !tbaa !35
  call void @llvm.lifetime.start.p0(i64 32, ptr nonnull %6) #17
  store double 1.000000e+00, ptr %6, align 8, !tbaa !77
  %9 = getelementptr inbounds nuw i8, ptr %6, i64 8
  call void @llvm.memset.p0.i64(ptr noundef nonnull align 8 dereferenceable(24) %9, i8 0, i64 24, i1 false)
  invoke void @_ZN2cv11setIdentityERKNS_17_InputOutputArrayERKNS_7Scalar_IdEE(ptr noundef nonnull align 8 dereferenceable(24) %5, ptr noundef nonnull align 8 dereferenceable(32) %6)
          to label %10 unwind label %11

10:                                               ; preds = %4
  call void @llvm.lifetime.end.p0(i64 32, ptr nonnull %6) #17
  call void @llvm.lifetime.end.p0(i64 24, ptr nonnull %5) #17
  ret void

11:                                               ; preds = %4
  %12 = landingpad { ptr, i32 }
          cleanup
  call void @llvm.lifetime.end.p0(i64 32, ptr nonnull %6) #17
  call void @llvm.lifetime.end.p0(i64 24, ptr nonnull %5) #17
  call void @_ZN2cv4UMatD1Ev(ptr noundef nonnull align 8 dereferenceable(80) %0) #17
  resume { ptr, i32 } %12
}